; Function Attrs: mustprogress nofree norecurse nosync nounwind willreturn memory(argmem: write) uwtable
define dso_local void @_ZN30btGeneric6DofSpring2Constraint17setTargetVelocityEif(ptr nocapture noundef nonnull writeonly align 8 dereferenceable(1484) %this, i32 noundef %index, float noundef %velocity) local_unnamed_addr #14 align 2 {
entry:
  %cmp = icmp slt i32 %index, 3
  br i1 %cmp, label %if.then, label %if.else

if.then:                                          ; preds = %entry
  %m_targetVelocity = getelementptr inbounds i8, ptr %this, i64 900
  %idxprom = sext i32 %index to i64
  %arrayidx = getelementptr inbounds float, ptr %m_targetVelocity, i64 %idxprom
  store float %velocity, ptr %arrayidx, align 4
  br label %if.end

if.else:                                          ; preds = %entry
  %m_angularLimits = getelementptr inbounds i8, ptr %this, i64 992
  %sub = add nsw i32 %index, -3
  %idxprom2 = zext nneg i32 %sub to i64
  %m_targetVelocity4 = getelementptr inbounds [3 x %class.btRotationalLimitMotor2], ptr %m_angularLimits, i64 0, i64 %idxprom2, i32 8
  store float %velocity, ptr %m_targetVelocity4, align 8
  br label %if.end

if.end:                                           ; preds = %if.else, %if.then
  ret void
}